; Function Attrs: mustprogress uwtable
define dso_local void @_ZN34btPolyhedralConvexAabbCachingShape15setLocalScalingERK9btVector3(ptr noundef nonnull align 8 dereferenceable(113) %this, ptr noundef nonnull align 4 dereferenceable(16) %scaling) unnamed_addr #0 align 2 personality ptr @__gxx_personality_v0 {
entry:
  %_supporting.i = alloca [6 x %class.btVector3], align 16
  tail call void @_ZN21btConvexInternalShape15setLocalScalingERK9btVector3(ptr noundef nonnull align 8 dereferenceable(72) %this, ptr noundef nonnull align 4 dereferenceable(16) %scaling)
  call void @llvm.lifetime.start.p0(i64 96, ptr nonnull %_supporting.i)
  %m_isLocalAabbValid.i = getelementptr inbounds i8, ptr %this, i64 112
  store i8 1, ptr %m_isLocalAabbValid.i, align 8
  %0 = load atomic i8, ptr @_ZGVZN34btPolyhedralConvexAabbCachingShape15recalcLocalAabbEvE11_directions acquire, align 8
  %guard.uninitialized.i = icmp eq i8 %0, 0
  br i1 %guard.uninitialized.i, label %init.check.i, label %init.end.i, !prof !22

init.check.i:                                     ; preds = %entry
  %1 = tail call i32 @__cxa_guard_acquire(ptr nonnull @_ZGVZN34btPolyhedralConvexAabbCachingShape15recalcLocalAabbEvE11_directions) #14
  %tobool.not.i = icmp eq i32 %1, 0
  br i1 %tobool.not.i, label %init.end.i, label %init.i

init.i:                                           ; preds = %init.check.i
  store float 1.000000e+00, ptr @_ZZN34btPolyhedralConvexAabbCachingShape15recalcLocalAabbEvE11_directions, align 16
  tail call void @llvm.memset.p0.i64(ptr noundef nonnull align 4 dereferenceable(16) getelementptr inbounds ([6 x %class.btVector3], ptr @_ZZN34btPolyhedralConvexAabbCachingShape15recalcLocalAabbEvE11_directions, i64 0, i64 0, i32 0, i64 1), i8 0, i64 16, i1 false)
  store float 1.000000e+00, ptr getelementptr inbounds ([6 x %class.btVector3], ptr @_ZZN34btPolyhedralConvexAabbCachingShape15recalcLocalAabbEvE11_directions, i64 0, i64 1, i32 0, i64 1), align 4
  tail call void @llvm.memset.p0.i64(ptr noundef nonnull align 8 dereferenceable(16) getelementptr inbounds ([6 x %class.btVector3], ptr @_ZZN34btPolyhedralConvexAabbCachingShape15recalcLocalAabbEvE11_directions, i64 0, i64 1, i32 0, i64 2), i8 0, i64 16, i1 false)
  store <2 x float> <float 1.000000e+00, float 0.000000e+00>, ptr getelementptr inbounds ([6 x %class.btVector3], ptr @_ZZN34btPolyhedralConvexAabbCachingShape15recalcLocalAabbEvE11_directions, i64 0, i64 2, i32 0, i64 2), align 8
  store float -1.000000e+00, ptr getelementptr inbounds ([6 x %class.btVector3], ptr @_ZZN34btPolyhedralConvexAabbCachingShape15recalcLocalAabbEvE11_directions, i64 0, i64 3), align 16
  tail call void @llvm.memset.p0.i64(ptr noundef nonnull align 4 dereferenceable(16) getelementptr inbounds ([6 x %class.btVector3], ptr @_ZZN34btPolyhedralConvexAabbCachingShape15recalcLocalAabbEvE11_directions, i64 0, i64 3, i32 0, i64 1), i8 0, i64 16, i1 false)
  store float -1.000000e+00, ptr getelementptr inbounds ([6 x %class.btVector3], ptr @_ZZN34btPolyhedralConvexAabbCachingShape15recalcLocalAabbEvE11_directions, i64 0, i64 4, i32 0, i64 1), align 4
  tail call void @llvm.memset.p0.i64(ptr noundef nonnull align 8 dereferenceable(16) getelementptr inbounds ([6 x %class.btVector3], ptr @_ZZN34btPolyhedralConvexAabbCachingShape15recalcLocalAabbEvE11_directions, i64 0, i64 4, i32 0, i64 2), i8 0, i64 16, i1 false)
  store <2 x float> <float -1.000000e+00, float 0.000000e+00>, ptr getelementptr inbounds ([6 x %class.btVector3], ptr @_ZZN34btPolyhedralConvexAabbCachingShape15recalcLocalAabbEvE11_directions, i64 0, i64 5, i32 0, i64 2), align 8
  tail call void @__cxa_guard_release(ptr nonnull @_ZGVZN34btPolyhedralConvexAabbCachingShape15recalcLocalAabbEvE11_directions) #14
  br label %init.end.i

init.end.i:                                       ; preds = %init.i, %init.check.i, %entry
  call void @llvm.memset.p0.i64(ptr noundef nonnull align 16 dereferenceable(96) %_supporting.i, i8 0, i64 96, i1 false)
  %vtable.i = load ptr, ptr %this, align 8
  %vfn.i = getelementptr inbounds i8, ptr %vtable.i, i64 152
  %2 = load ptr, ptr %vfn.i, align 8
  call void %2(ptr noundef nonnull align 8 dereferenceable(80) %this, ptr noundef nonnull @_ZZN34btPolyhedralConvexAabbCachingShape15recalcLocalAabbEvE11_directions, ptr noundef nonnull %_supporting.i, i32 noundef 6)
  %m_collisionMargin.i = getelementptr inbounds i8, ptr %this, i64 64
  %3 = load float, ptr %m_collisionMargin.i, align 8
  %m_localAabbMax.i = getelementptr inbounds i8, ptr %this, i64 96
  %m_localAabbMin.i = getelementptr inbounds i8, ptr %this, i64 80
  br label %for.body.i

for.body.i:                                       ; preds = %for.body.i, %init.end.i
  %indvars.iv.i = phi i64 [ 0, %init.end.i ], [ %indvars.iv.next.i, %for.body.i ]
  %arrayidx.i = getelementptr inbounds [6 x %class.btVector3], ptr %_supporting.i, i64 0, i64 %indvars.iv.i
  %arrayidx47.i = getelementptr inbounds float, ptr %arrayidx.i, i64 %indvars.iv.i
  %4 = load float, ptr %arrayidx47.i, align 4
  %add.i = fadd float %3, %4
  %arrayidx50.i = getelementptr inbounds float, ptr %m_localAabbMax.i, i64 %indvars.iv.i
  store float %add.i, ptr %arrayidx50.i, align 4
  %5 = add nuw nsw i64 %indvars.iv.i, 3
  %arrayidx53.i = getelementptr inbounds [6 x %class.btVector3], ptr %_supporting.i, i64 0, i64 %5
  %arrayidx56.i = getelementptr inbounds float, ptr %arrayidx53.i, i64 %indvars.iv.i
  %6 = load float, ptr %arrayidx56.i, align 4
  %sub.i = fsub float %6, %3
  %arrayidx60.i = getelementptr inbounds float, ptr %m_localAabbMin.i, i64 %indvars.iv.i
  store float %sub.i, ptr %arrayidx60.i, align 4
  %indvars.iv.next.i = add nuw nsw i64 %indvars.iv.i, 1
  %exitcond.not.i = icmp eq i64 %indvars.iv.next.i, 3
  br i1 %exitcond.not.i, label %_ZN34btPolyhedralConvexAabbCachingShape15recalcLocalAabbEv.exit, label %for.body.i, !llvm.loop !23

_ZN34btPolyhedralConvexAabbCachingShape15recalcLocalAabbEv.exit: ; preds = %for.body.i
  call void @llvm.lifetime.end.p0(i64 96, ptr nonnull %_supporting.i)
  ret void
}